; Function Attrs: mustprogress uwtable
define internal fastcc void @_ZN4toku8treenode17traverse_overlapsIZNS_8locktree33sto_migrate_buffer_ranges_to_treeEPvE14migrate_fn_objEEvRKNS_8keyrangeEPT_(ptr noundef nonnull align 8 dereferenceable(202) %0, ptr noundef nonnull align 8 dereferenceable(81) %1, ptr noundef nonnull %2) unnamed_addr #0 align 2 {
  %4 = getelementptr inbounds nuw i8, ptr %0, i64 192
  %5 = load ptr, ptr %4, align 8, !tbaa !173
  %6 = getelementptr inbounds nuw i8, ptr %0, i64 48
  %7 = tail call noundef i32 @_ZNK4toku8keyrange7compareERKNS_10comparatorERKS0_(ptr noundef nonnull align 8 dereferenceable(81) %1, ptr noundef nonnull align 8 dereferenceable(17) %5, ptr noundef nonnull align 8 dereferenceable(81) %6)
  %8 = icmp eq i32 %7, 0
  br i1 %8, label %9, label %15

9:                                                ; preds = %3
  %10 = getelementptr inbounds nuw i8, ptr %0, i64 136
  %11 = load i64, ptr %10, align 8, !tbaa !176
  %12 = getelementptr inbounds nuw i8, ptr %0, i64 144
  %13 = load i8, ptr %12, align 8, !tbaa !177, !range !67, !noundef !68
  %14 = trunc nuw i8 %13 to i1
  %.val = load ptr, ptr %2, align 8, !tbaa !78
  tail call void @_ZN4toku15concurrent_tree15locked_keyrange6insertERKNS_8keyrangeEmb(ptr noundef nonnull align 8 dereferenceable(104) %.val, ptr noundef nonnull align 8 dereferenceable(81) %6, i64 noundef %11, i1 noundef zeroext %14)
  br label %37

15:                                               ; preds = %3
  %16 = getelementptr inbounds nuw i8, ptr %0, i64 160
  %17 = tail call noundef ptr @_ZN4toku8treenode9child_ptr10get_lockedEv(ptr noundef nonnull align 8 dereferenceable(16) %16)
  %.not = icmp eq ptr %17, null
  br i1 %.not, label %21, label %18

18:                                               ; preds = %15
  %.not22 = icmp eq i32 %7, 2
  br i1 %.not22, label %20, label %19

19:                                               ; preds = %18
  tail call fastcc void @_ZN4toku8treenode17traverse_overlapsIZNS_8locktree33sto_migrate_buffer_ranges_to_treeEPvE14migrate_fn_objEEvRKNS_8keyrangeEPT_(ptr noundef nonnull align 8 dereferenceable(202) %17, ptr noundef nonnull align 8 dereferenceable(81) %1, ptr noundef %2)
  br label %20

20:                                               ; preds = %19, %18
  tail call void @_ZN4toku8treenode12mutex_unlockEv(ptr noundef nonnull align 8 dereferenceable(202) %17)
  br label %21

21:                                               ; preds = %20, %15
  %22 = icmp eq i32 %7, 3
  br i1 %22, label %.thread, label %23

23:                                               ; preds = %21
  %24 = getelementptr inbounds nuw i8, ptr %0, i64 176
  %25 = tail call noundef ptr @_ZN4toku8treenode9child_ptr10get_lockedEv(ptr noundef nonnull align 8 dereferenceable(16) %24)
  %.not23 = icmp eq ptr %25, null
  br i1 %.not23, label %37, label %33

.thread:                                          ; preds = %21
  %26 = getelementptr inbounds nuw i8, ptr %0, i64 136
  %27 = load i64, ptr %26, align 8, !tbaa !176
  %28 = getelementptr inbounds nuw i8, ptr %0, i64 144
  %29 = load i8, ptr %28, align 8, !tbaa !177, !range !67, !noundef !68
  %30 = trunc nuw i8 %29 to i1
  %.val25 = load ptr, ptr %2, align 8, !tbaa !78
  tail call void @_ZN4toku15concurrent_tree15locked_keyrange6insertERKNS_8keyrangeEmb(ptr noundef nonnull align 8 dereferenceable(104) %.val25, ptr noundef nonnull align 8 dereferenceable(81) %6, i64 noundef %27, i1 noundef zeroext %30)
  %31 = getelementptr inbounds nuw i8, ptr %0, i64 176
  %32 = tail call noundef ptr @_ZN4toku8treenode9child_ptr10get_lockedEv(ptr noundef nonnull align 8 dereferenceable(16) %31)
  %.not2326 = icmp eq ptr %32, null
  br i1 %.not2326, label %37, label %.thread27

33:                                               ; preds = %23
  %.not24 = icmp eq i32 %7, 1
  br i1 %.not24, label %35, label %.thread27

.thread27:                                        ; preds = %.thread, %33
  %34 = phi ptr [ %25, %33 ], [ %32, %.thread ]
  tail call fastcc void @_ZN4toku8treenode17traverse_overlapsIZNS_8locktree33sto_migrate_buffer_ranges_to_treeEPvE14migrate_fn_objEEvRKNS_8keyrangeEPT_(ptr noundef nonnull align 8 dereferenceable(202) %34, ptr noundef nonnull align 8 dereferenceable(81) %1, ptr noundef %2)
  br label %35

35:                                               ; preds = %.thread27, %33
  %36 = phi ptr [ %34, %.thread27 ], [ %25, %33 ]
  tail call void @_ZN4toku8treenode12mutex_unlockEv(ptr noundef nonnull align 8 dereferenceable(202) %36)
  br label %37

37:                                               ; preds = %.thread, %35, %23, %9
  ret void
}